target datalayout = "e-m:e-p270:32:32-p271:32:32-p272:64:64-i64:64-i128:128-f80:128-n8:16:32:64-S128"
target triple = "x86_64-pc-linux-gnu"

%struct.H5O_layout_chunk_t = type { i32, i8, i32, [33 x i32], i32, i32, i64, i64, [33 x i64], [33 x i64], [33 x i64], [33 x i64], %union.anon.1 }
%union.anon.1 = type { %struct.H5O_layout_chunk_earray_t }
%struct.H5O_layout_chunk_earray_t = type { %struct.anon.2, i32, [33 x i32], [33 x i64], [33 x i64] }
%struct.anon.2 = type { i8, i8, i8, i8, i8 }
%struct.H5D_chunk_rec_t = type { [33 x i64], i32, i32, i64 }
%struct.H5D_chunk_iter_ud_t = type { ptr, ptr, ptr, i64 }
%struct.H5_user_cb_state_t = type { %struct.H5E_user_cb_state_t }
%struct.H5E_user_cb_state_t = type { i32, %union.anon.11, ptr }
%union.anon.11 = type { ptr }

@H5D_init_g = external global i8, align 1
@H5_libterm_g = external global i8, align 1
@.str.1 = private unnamed_addr constant [102 x i8] c"generated/home/dtcxzyw/WorkSpace/Projects/compilers/llvm-opt-benchmark/bench/hdf5/hdf5/src/H5Dchunk.c\00", align 1
@H5E_DATASET_g = external global i64, align 8
@H5E_CANTNEXT_g = external global i64, align 8
@__func__.H5D__chunk_iter_cb = private unnamed_addr constant [19 x i8] c"H5D__chunk_iter_cb\00", align 1
@.str.185 = private unnamed_addr constant [26 x i8] c"iteration operator failed\00", align 1

; Function Attrs: nounwind uwtable
define internal i32 @H5D__chunk_iter_cb(ptr noundef %0, ptr noundef %1) #0 {
  %3 = alloca ptr, align 8
  %4 = alloca ptr, align 8
  %5 = alloca ptr, align 8
  %6 = alloca ptr, align 8
  %7 = alloca [33 x i64], align 16
  %8 = alloca i32, align 4
  %9 = alloca i32, align 4
  %10 = alloca %struct.H5_user_cb_state_t, align 8
  store ptr %0, ptr %3, align 8, !tbaa !259
  store ptr %1, ptr %4, align 8, !tbaa !154
  call void @llvm.lifetime.start.p0(i64 8, ptr %5) #10
  %11 = load ptr, ptr %4, align 8, !tbaa !154
  store ptr %11, ptr %5, align 8, !tbaa !418
  call void @llvm.lifetime.start.p0(i64 8, ptr %6) #10
  %12 = load ptr, ptr %5, align 8, !tbaa !418
  %13 = getelementptr inbounds nuw %struct.H5D_chunk_iter_ud_t, ptr %12, i32 0, i32 2
  %14 = load ptr, ptr %13, align 8, !tbaa !416
  store ptr %14, ptr %6, align 8, !tbaa !240
  call void @llvm.lifetime.start.p0(i64 264, ptr %7) #10
  call void @llvm.lifetime.start.p0(i64 4, ptr %8) #10
  store i32 0, ptr %8, align 4, !tbaa !10
  %15 = load i8, ptr @H5D_init_g, align 1, !tbaa !12, !range !14, !noundef !15
  %16 = trunc i8 %15 to i1
  br i1 %16, label %21, label %17

17:                                               ; preds = %2
  %18 = load i8, ptr @H5_libterm_g, align 1, !tbaa !12, !range !14, !noundef !15
  %19 = trunc i8 %18 to i1
  %20 = xor i1 %19, true
  br label %21

21:                                               ; preds = %17, %2
  %22 = phi i1 [ true, %2 ], [ %20, %17 ]
  %23 = xor i1 %22, true
  %24 = xor i1 %23, true
  %25 = zext i1 %24 to i32
  %26 = sext i32 %25 to i64
  %27 = call i64 @llvm.expect.i64(i64 %26, i64 1)
  %28 = icmp ne i64 %27, 0
  br i1 %28, label %29, label %100

29:                                               ; preds = %21
  call void @llvm.lifetime.start.p0(i64 4, ptr %9) #10
  store i32 0, ptr %9, align 4, !tbaa !10
  br label %30

30:                                               ; preds = %55, %29
  %31 = load i32, ptr %9, align 4, !tbaa !10
  %32 = load ptr, ptr %6, align 8, !tbaa !240
  %33 = getelementptr inbounds nuw %struct.H5O_layout_chunk_t, ptr %32, i32 0, i32 2
  %34 = load i32, ptr %33, align 8, !tbaa !218
  %35 = icmp ult i32 %31, %34
  br i1 %35, label %37, label %36

36:                                               ; preds = %30
  call void @llvm.lifetime.end.p0(i64 4, ptr %9) #10
  br label %58

37:                                               ; preds = %30
  %38 = load ptr, ptr %3, align 8, !tbaa !259
  %39 = getelementptr inbounds nuw %struct.H5D_chunk_rec_t, ptr %38, i32 0, i32 0
  %40 = load i32, ptr %9, align 4, !tbaa !10
  %41 = zext i32 %40 to i64
  %42 = getelementptr inbounds nuw [33 x i64], ptr %39, i64 0, i64 %41
  %43 = load i64, ptr %42, align 8, !tbaa !24
  %44 = load ptr, ptr %6, align 8, !tbaa !240
  %45 = getelementptr inbounds nuw %struct.H5O_layout_chunk_t, ptr %44, i32 0, i32 3
  %46 = load i32, ptr %9, align 4, !tbaa !10
  %47 = zext i32 %46 to i64
  %48 = getelementptr inbounds nuw [33 x i32], ptr %45, i64 0, i64 %47
  %49 = load i32, ptr %48, align 4, !tbaa !10
  %50 = zext i32 %49 to i64
  %51 = mul i64 %43, %50
  %52 = load i32, ptr %9, align 4, !tbaa !10
  %53 = zext i32 %52 to i64
  %54 = getelementptr inbounds nuw [33 x i64], ptr %7, i64 0, i64 %53
  store i64 %51, ptr %54, align 8, !tbaa !24
  br label %55

55:                                               ; preds = %37
  %56 = load i32, ptr %9, align 4, !tbaa !10
  %57 = add i32 %56, 1
  store i32 %57, ptr %9, align 4, !tbaa !10
  br label %30, !llvm.loop !420

58:                                               ; preds = %36
  call void @llvm.lifetime.start.p0(i64 24, ptr %10) #10
  %59 = call i32 @H5_user_cb_prepare(ptr noundef %10)
  %60 = icmp slt i32 %59, 0
  br i1 %60, label %61, label %62

61:                                               ; preds = %58
  store i32 -1, ptr %8, align 4, !tbaa !10
  br label %89

62:                                               ; preds = %58
  %63 = load ptr, ptr %5, align 8, !tbaa !418
  %64 = getelementptr inbounds nuw %struct.H5D_chunk_iter_ud_t, ptr %63, i32 0, i32 0
  %65 = load ptr, ptr %64, align 8, !tbaa !413
  %66 = getelementptr inbounds [33 x i64], ptr %7, i64 0, i64 0
  %67 = load ptr, ptr %3, align 8, !tbaa !259
  %68 = getelementptr inbounds nuw %struct.H5D_chunk_rec_t, ptr %67, i32 0, i32 2
  %69 = load i32, ptr %68, align 4, !tbaa !360
  %70 = load ptr, ptr %5, align 8, !tbaa !418
  %71 = getelementptr inbounds nuw %struct.H5D_chunk_iter_ud_t, ptr %70, i32 0, i32 3
  %72 = load i64, ptr %71, align 8, !tbaa !417
  %73 = load ptr, ptr %3, align 8, !tbaa !259
  %74 = getelementptr inbounds nuw %struct.H5D_chunk_rec_t, ptr %73, i32 0, i32 3
  %75 = load i64, ptr %74, align 8, !tbaa !361
  %76 = add i64 %72, %75
  %77 = load ptr, ptr %3, align 8, !tbaa !259
  %78 = getelementptr inbounds nuw %struct.H5D_chunk_rec_t, ptr %77, i32 0, i32 1
  %79 = load i32, ptr %78, align 8, !tbaa !261
  %80 = zext i32 %79 to i64
  %81 = load ptr, ptr %5, align 8, !tbaa !418
  %82 = getelementptr inbounds nuw %struct.H5D_chunk_iter_ud_t, ptr %81, i32 0, i32 1
  %83 = load ptr, ptr %82, align 8, !tbaa !415
  %84 = call i32 %65(ptr noundef %66, i32 noundef %69, i64 noundef %76, i64 noundef %80, ptr noundef %83)
  store i32 %84, ptr %8, align 4, !tbaa !10
  %85 = call i32 @H5_user_cb_restore(ptr noundef %10)
  %86 = icmp slt i32 %85, 0
  br i1 %86, label %87, label %88

87:                                               ; preds = %62
  store i32 -1, ptr %8, align 4, !tbaa !10
  br label %88

88:                                               ; preds = %87, %62
  br label %89

89:                                               ; preds = %88, %61
  call void @llvm.lifetime.end.p0(i64 24, ptr %10) #10
  %90 = load i32, ptr %8, align 4, !tbaa !10
  %91 = icmp slt i32 %90, 0
  br i1 %91, label %92, label %99

92:                                               ; preds = %89
  br label %93

93:                                               ; preds = %92
  %94 = load i64, ptr @H5E_DATASET_g, align 8, !tbaa !24
  %95 = load i64, ptr @H5E_CANTNEXT_g, align 8, !tbaa !24
  %96 = call i32 (ptr, ptr, i32, i64, i64, ptr, ...) @H5E_printf_stack(ptr noundef @.str.1, ptr noundef @__func__.H5D__chunk_iter_cb, i32 noundef 8158, i64 noundef %94, i64 noundef %95, ptr noundef @.str.185)
  br label %97

97:                                               ; preds = %93
  br label %98

98:                                               ; preds = %97
  br label %99

99:                                               ; preds = %98, %89
  br label %100

100:                                              ; preds = %99, %21
  %101 = load i32, ptr %8, align 4, !tbaa !10
  call void @llvm.lifetime.end.p0(i64 4, ptr %8) #10
  call void @llvm.lifetime.end.p0(i64 264, ptr %7) #10
  call void @llvm.lifetime.end.p0(i64 8, ptr %6) #10
  call void @llvm.lifetime.end.p0(i64 8, ptr %5) #10
  ret i32 %101
}