; Function Attrs: nounwind uwtable
define internal i32 @H5D__chunk_iter_cb(ptr noundef readonly captures(none) %0, ptr noundef readonly captures(none) %1) #0 {
  %3 = alloca [33 x i64], align 16
  %4 = alloca %struct.H5_user_cb_state_t, align 8
  %5 = getelementptr inbounds nuw i8, ptr %1, i64 16
  %6 = load ptr, ptr %5, align 8, !tbaa !389
  call void @llvm.lifetime.start.p0(i64 264, ptr nonnull %3) #15
  %7 = load i8, ptr @H5D_init_g, align 1, !tbaa !3, !range !7, !noundef !8
  %8 = trunc nuw i8 %7 to i1
  %9 = load i8, ptr @H5_libterm_g, align 1, !range !7
  %10 = trunc nuw i8 %9 to i1
  %11 = xor i1 %10, true
  %12 = select i1 %8, i1 true, i1 %11
  br i1 %12, label %.preheader, label %49, !prof !9

.preheader:                                       ; preds = %2
  %13 = getelementptr inbounds nuw i8, ptr %6, i64 8
  %14 = load i32, ptr %13, align 8, !tbaa !202
  %.not = icmp eq i32 %14, 0
  br i1 %.not, label %._crit_edge, label %.lr.ph

.lr.ph:                                           ; preds = %.preheader
  %15 = getelementptr inbounds nuw i8, ptr %6, i64 12
  %wide.trip.count = zext i32 %14 to i64
  br label %18

._crit_edge:                                      ; preds = %18, %.preheader
  call void @llvm.lifetime.start.p0(i64 24, ptr nonnull %4) #15
  %16 = call i32 @H5_user_cb_prepare(ptr noundef nonnull %4) #15
  %17 = icmp slt i32 %16, 0
  br i1 %17, label %.thread, label %26

18:                                               ; preds = %.lr.ph, %18
  %indvars.iv = phi i64 [ 0, %.lr.ph ], [ %indvars.iv.next, %18 ]
  %19 = getelementptr inbounds nuw [33 x i64], ptr %0, i64 0, i64 %indvars.iv
  %20 = load i64, ptr %19, align 8, !tbaa !21
  %21 = getelementptr inbounds nuw [33 x i32], ptr %15, i64 0, i64 %indvars.iv
  %22 = load i32, ptr %21, align 4, !tbaa !62
  %23 = zext i32 %22 to i64
  %24 = mul i64 %20, %23
  %25 = getelementptr inbounds nuw [33 x i64], ptr %3, i64 0, i64 %indvars.iv
  store i64 %24, ptr %25, align 8, !tbaa !21
  %indvars.iv.next = add nuw nsw i64 %indvars.iv, 1
  %exitcond.not = icmp eq i64 %indvars.iv.next, %wide.trip.count
  br i1 %exitcond.not, label %._crit_edge, label %18, !llvm.loop !391

26:                                               ; preds = %._crit_edge
  %27 = load ptr, ptr %1, align 8, !tbaa !386
  %28 = getelementptr inbounds nuw i8, ptr %0, i64 268
  %29 = load i32, ptr %28, align 4, !tbaa !346
  %30 = getelementptr inbounds nuw i8, ptr %1, i64 24
  %31 = load i64, ptr %30, align 8, !tbaa !390
  %32 = getelementptr inbounds nuw i8, ptr %0, i64 272
  %33 = load i64, ptr %32, align 8, !tbaa !347
  %34 = add i64 %33, %31
  %35 = getelementptr inbounds nuw i8, ptr %0, i64 264
  %36 = load i32, ptr %35, align 8, !tbaa !253
  %37 = zext i32 %36 to i64
  %38 = getelementptr inbounds nuw i8, ptr %1, i64 8
  %39 = load ptr, ptr %38, align 8, !tbaa !388
  %40 = call i32 %27(ptr noundef nonnull %3, i32 noundef %29, i64 noundef %34, i64 noundef %37, ptr noundef %39) #15
  %41 = call i32 @H5_user_cb_restore(ptr noundef nonnull %4) #15
  %42 = icmp slt i32 %41, 0
  br i1 %42, label %.thread, label %43

.thread:                                          ; preds = %._crit_edge, %26
  call void @llvm.lifetime.end.p0(i64 24, ptr nonnull %4) #15
  br label %45

43:                                               ; preds = %26
  call void @llvm.lifetime.end.p0(i64 24, ptr nonnull %4) #15
  %44 = icmp slt i32 %40, 0
  br i1 %44, label %45, label %49

45:                                               ; preds = %.thread, %43
  %.119 = phi i32 [ -1, %.thread ], [ %40, %43 ]
  %46 = load i64, ptr @H5E_DATASET_g, align 8, !tbaa !21
  %47 = load i64, ptr @H5E_CANTNEXT_g, align 8, !tbaa !21
  %48 = call i32 (ptr, ptr, i32, i64, i64, ptr, ...) @H5E_printf_stack(ptr noundef nonnull @.str.1, ptr noundef nonnull @__func__.H5D__chunk_iter_cb, i32 noundef 8158, i64 noundef %46, i64 noundef %47, ptr noundef nonnull @.str.185) #15
  br label %49

49:                                               ; preds = %43, %45, %2
  %.017 = phi i32 [ %.119, %45 ], [ %40, %43 ], [ 0, %2 ]
  call void @llvm.lifetime.end.p0(i64 264, ptr nonnull %3) #15
  ret i32 %.017
}